; Function Attrs: mustprogress nofree norecurse nosync nounwind willreturn memory(argmem: read) uwtable
define hidden noundef zeroext i1 @_ZNK19OpenColorIO_v2_4dev10CTFVersionltERKS0_(ptr noundef nonnull readonly align 4 dereferenceable(12) %this, ptr noundef nonnull readonly align 4 dereferenceable(12) %rhs) local_unnamed_addr #7 align 2 {
entry:
  %cmp = icmp eq ptr %this, %rhs
  br i1 %cmp, label %return, label %if.end

if.end:                                           ; preds = %entry
  %0 = load i32, ptr %this, align 4
  %1 = load i32, ptr %rhs, align 4
  %cmp3 = icmp ult i32 %0, %1
  br i1 %cmp3, label %return, label %if.else

if.else:                                          ; preds = %if.end
  %cmp7 = icmp ugt i32 %0, %1
  br i1 %cmp7, label %return, label %if.else9

if.else9:                                         ; preds = %if.else
  %m_minor = getelementptr inbounds i8, ptr %this, i64 4
  %2 = load i32, ptr %m_minor, align 4
  %m_minor10 = getelementptr inbounds i8, ptr %rhs, i64 4
  %3 = load i32, ptr %m_minor10, align 4
  %cmp11 = icmp ult i32 %2, %3
  br i1 %cmp11, label %return, label %if.else13

if.else13:                                        ; preds = %if.else9
  %cmp16 = icmp ugt i32 %2, %3
  br i1 %cmp16, label %return, label %if.else18

if.else18:                                        ; preds = %if.else13
  %m_revision = getelementptr inbounds i8, ptr %this, i64 8
  %4 = load i32, ptr %m_revision, align 4
  %m_revision19 = getelementptr inbounds i8, ptr %rhs, i64 8
  %5 = load i32, ptr %m_revision19, align 4
  %cmp20 = icmp ult i32 %4, %5
  br label %return

return:                                           ; preds = %if.else18, %if.else13, %if.else9, %if.else, %if.end, %entry
  %retval.0 = phi i1 [ false, %entry ], [ true, %if.end ], [ false, %if.else ], [ true, %if.else9 ], [ false, %if.else13 ], [ %cmp20, %if.else18 ]
  ret i1 %retval.0
}